target datalayout = "e-m:e-p270:32:32-p271:32:32-p272:64:64-i64:64-i128:128-f80:128-n8:16:32:64-S128"
target triple = "x86_64-unknown-linux-gnu"

%"class.std::basic_istream" = type { ptr, i64, %"class.std::basic_ios" }
%"class.std::basic_ios" = type { %"class.std::ios_base", ptr, i8, i8, ptr, ptr, ptr, ptr }
%"class.std::ios_base" = type { ptr, i64, i64, i32, i32, i32, ptr, %"struct.std::ios_base::_Words", [8 x %"struct.std::ios_base::_Words"], i32, ptr, %"class.std::locale" }
%"struct.std::ios_base::_Words" = type { ptr, i64 }
%"class.std::locale" = type { ptr }
%"class.std::basic_ostream" = type { ptr, %"class.std::basic_ios" }
%class.veloxtpFlexLexer = type <{ %class.FlexLexer.base, i32, i32, [4 x i8], ptr, %"class.std::basic_istream", %"class.std::basic_ostream", i8, [3 x i8], i32, ptr, i32, i32, i32, [4 x i8], i64, i64, ptr, i32, [4 x i8], ptr, ptr, ptr, ptr, ptr, i32, i32, i32, i32, i32, i32, i32, [4 x i8] }>
%class.FlexLexer.base = type <{ ptr, ptr, i32, i32, i32 }>

; Function Attrs: mustprogress nounwind uwtable
define linkonce_odr void @_ZN9FlexLexerD2Ev(ptr noundef nonnull align 8 dereferenceable(28) %this) unnamed_addr #4 comdat align 2 {
entry:
  %this.addr = alloca ptr, align 8
  store ptr %this, ptr %this.addr, align 8
  ret void
}

; Function Attrs: mustprogress nounwind uwtable
define void @_Z11veloxtpfreePv(ptr noundef %ptr) #4 {
entry:
  %ptr.addr = alloca ptr, align 8
  store ptr %ptr, ptr %ptr.addr, align 8
  %0 = load ptr, ptr %ptr.addr, align 8
  call void @free(ptr noundef %0) #3
  ret void
}

; Function Attrs: mustprogress nounwind uwtable
define void @_ZN16veloxtpFlexLexerD2Ev(ptr noundef nonnull align 8 dereferenceable(732) %this) unnamed_addr #4 align 2 personality ptr @__gxx_personality_v0 {
entry:
  %this.addr = alloca ptr, align 8
  store ptr %this, ptr %this.addr, align 8
  %this1 = load ptr, ptr %this.addr, align 8
  store ptr getelementptr inbounds ({ [17 x ptr] }, ptr @_ZTV16veloxtpFlexLexer, i32 0, i32 0, i32 2), ptr %this1, align 8
  %yy_state_buf = getelementptr inbounds %class.veloxtpFlexLexer, ptr %this1, i32 0, i32 21
  %0 = load ptr, ptr %yy_state_buf, align 8
  %isnull = icmp eq ptr %0, null
  br i1 %isnull, label %delete.end, label %delete.notnull

delete.notnull:                                   ; preds = %entry
  call void @_ZdaPv(ptr noundef %0) #20
  br label %delete.end

delete.end:                                       ; preds = %delete.notnull, %entry
  %yy_start_stack = getelementptr inbounds %class.veloxtpFlexLexer, ptr %this1, i32 0, i32 4
  %1 = load ptr, ptr %yy_start_stack, align 8
  invoke void @_Z11veloxtpfreePv(ptr noundef %1)
          to label %invoke.cont unwind label %terminate.lpad

invoke.cont:                                      ; preds = %delete.end
  %yy_buffer_stack = getelementptr inbounds %class.veloxtpFlexLexer, ptr %this1, i32 0, i32 17
  %2 = load ptr, ptr %yy_buffer_stack, align 8
  %tobool = icmp ne ptr %2, null
  br i1 %tobool, label %cond.true, label %cond.false

cond.true:                                        ; preds = %invoke.cont
  %yy_buffer_stack2 = getelementptr inbounds %class.veloxtpFlexLexer, ptr %this1, i32 0, i32 17
  %3 = load ptr, ptr %yy_buffer_stack2, align 8
  %yy_buffer_stack_top = getelementptr inbounds %class.veloxtpFlexLexer, ptr %this1, i32 0, i32 15
  %4 = load i64, ptr %yy_buffer_stack_top, align 8
  %arrayidx = getelementptr inbounds ptr, ptr %3, i64 %4
  %5 = load ptr, ptr %arrayidx, align 8
  br label %cond.end

cond.false:                                       ; preds = %invoke.cont
  br label %cond.end

cond.end:                                         ; preds = %cond.false, %cond.true
  %cond = phi ptr [ %5, %cond.true ], [ null, %cond.false ]
  %vtable = load ptr, ptr %this1, align 8
  %vfn = getelementptr inbounds ptr, ptr %vtable, i64 5
  %6 = load ptr, ptr %vfn, align 8
  invoke void %6(ptr noundef nonnull align 8 dereferenceable(732) %this1, ptr noundef %cond)
          to label %invoke.cont3 unwind label %terminate.lpad

invoke.cont3:                                     ; preds = %cond.end
  %yy_buffer_stack4 = getelementptr inbounds %class.veloxtpFlexLexer, ptr %this1, i32 0, i32 17
  %7 = load ptr, ptr %yy_buffer_stack4, align 8
  invoke void @_Z11veloxtpfreePv(ptr noundef %7)
          to label %invoke.cont5 unwind label %terminate.lpad

invoke.cont5:                                     ; preds = %invoke.cont3
  %yyout = getelementptr inbounds %class.veloxtpFlexLexer, ptr %this1, i32 0, i32 6
  call void @_ZNSoD1Ev(ptr noundef nonnull align 8 dereferenceable(8) %yyout) #3
  %yyin = getelementptr inbounds %class.veloxtpFlexLexer, ptr %this1, i32 0, i32 5
  call void @_ZNSiD1Ev(ptr noundef nonnull align 8 dereferenceable(16) %yyin) #3
  call void @_ZN9FlexLexerD2Ev(ptr noundef nonnull align 8 dereferenceable(28) %this1) #3
  ret void

terminate.lpad:                                   ; preds = %invoke.cont3, %cond.end, %delete.end
  %8 = landingpad { ptr, i32 }
          catch ptr null
  %9 = extractvalue { ptr, i32 } %8, 0
  call void @__clang_call_terminate(ptr %9) #21
  unreachable
}