; Function Attrs: mustprogress nounwind uwtable
define void @_ZN16veloxtpFlexLexerD2Ev(ptr noundef nonnull align 8 dereferenceable(732) %this) unnamed_addr #8 align 2 personality ptr @__gxx_personality_v0 {
entry:
  store ptr getelementptr inbounds ({ [17 x ptr] }, ptr @_ZTV16veloxtpFlexLexer, i64 0, i32 0, i64 2), ptr %this, align 8
  %yy_state_buf = getelementptr inbounds i8, ptr %this, i64 672
  %0 = load ptr, ptr %yy_state_buf, align 8
  %isnull = icmp eq ptr %0, null
  br i1 %isnull, label %delete.end, label %delete.notnull

delete.notnull:                                   ; preds = %entry
  tail call void @_ZdaPv(ptr noundef nonnull %0) #38
  br label %delete.end

delete.end:                                       ; preds = %delete.notnull, %entry
  %yy_start_stack = getelementptr inbounds i8, ptr %this, i64 40
  %1 = load ptr, ptr %yy_start_stack, align 8
  tail call void @free(ptr noundef %1) #34
  %yy_buffer_stack = getelementptr inbounds i8, ptr %this, i64 648
  %2 = load ptr, ptr %yy_buffer_stack, align 8
  %tobool.not = icmp eq ptr %2, null
  br i1 %tobool.not, label %cond.end, label %cond.true

cond.true:                                        ; preds = %delete.end
  %yy_buffer_stack_top = getelementptr inbounds i8, ptr %this, i64 632
  %3 = load i64, ptr %yy_buffer_stack_top, align 8
  %arrayidx = getelementptr inbounds ptr, ptr %2, i64 %3
  %4 = load ptr, ptr %arrayidx, align 8
  br label %cond.end

cond.end:                                         ; preds = %delete.end, %cond.true
  %cond = phi ptr [ %4, %cond.true ], [ null, %delete.end ]
  %vtable = load ptr, ptr %this, align 8
  %vfn = getelementptr inbounds i8, ptr %vtable, i64 40
  %5 = load ptr, ptr %vfn, align 8
  invoke void %5(ptr noundef nonnull align 8 dereferenceable(732) %this, ptr noundef %cond)
          to label %invoke.cont3 unwind label %terminate.lpad

invoke.cont3:                                     ; preds = %cond.end
  %6 = load ptr, ptr %yy_buffer_stack, align 8
  tail call void @free(ptr noundef %6) #34
  %yyout = getelementptr inbounds i8, ptr %this, i64 328
  tail call void @_ZNSoD1Ev(ptr noundef nonnull align 8 dereferenceable(8) %yyout) #34
  %yyin = getelementptr inbounds i8, ptr %this, i64 48
  tail call void @_ZNSiD1Ev(ptr noundef nonnull align 8 dereferenceable(16) %yyin) #34
  ret void

terminate.lpad:                                   ; preds = %cond.end
  %7 = landingpad { ptr, i32 }
          catch ptr null
  %8 = extractvalue { ptr, i32 } %7, 0
  tail call void @__clang_call_terminate(ptr %8) #39
  unreachable
}